; ModuleID = 'source-C-CXX/36/703.cpp'
source_filename = "source-C-CXX/36/703.cpp"
target datalayout = "e-m:e-p270:32:32-p271:32:32-p272:64:64-i64:64-f80:128-n8:16:32:64-S128"
target triple = "x86_64-pc-linux-gnu"

%"class.std::ios_base::Init" = type { i8 }
%"class.std::basic_istream" = type { i32 (...)**, i64, %"class.std::basic_ios" }
%"class.std::basic_ios" = type { %"class.std::ios_base", %"class.std::basic_ostream"*, i8, i8, %"class.std::basic_streambuf"*, %"class.std::ctype"*, %"class.std::num_put"*, %"class.std::num_get"* }
%"class.std::ios_base" = type { i32 (...)**, i64, i64, i32, i32, i32, %"struct.std::ios_base::_Callback_list"*, %"struct.std::ios_base::_Words", [8 x %"struct.std::ios_base::_Words"], i32, %"struct.std::ios_base::_Words"*, %"class.std::locale" }
%"struct.std::ios_base::_Callback_list" = type { %"struct.std::ios_base::_Callback_list"*, void (i32, %"class.std::ios_base"*, i32)*, i32, i32 }
%"struct.std::ios_base::_Words" = type { i8*, i64 }
%"class.std::locale" = type { %"class.std::locale::_Impl"* }
%"class.std::locale::_Impl" = type { i32, %"class.std::locale::facet"**, i64, %"class.std::locale::facet"**, i8** }
%"class.std::locale::facet" = type <{ i32 (...)**, i32, [4 x i8] }>
%"class.std::basic_ostream" = type { i32 (...)**, %"class.std::basic_ios" }
%"class.std::basic_streambuf" = type { i32 (...)**, i8*, i8*, i8*, i8*, i8*, i8*, %"class.std::locale" }
%"class.std::ctype" = type <{ %"class.std::locale::facet.base", [4 x i8], %struct.__locale_struct*, i8, [7 x i8], i32*, i32*, i16*, i8, [256 x i8], [256 x i8], i8, [6 x i8] }>
%"class.std::locale::facet.base" = type <{ i32 (...)**, i32 }>
%struct.__locale_struct = type { [13 x %struct.__locale_data*], i16*, i32*, i32*, [13 x i8*] }
%struct.__locale_data = type opaque
%"class.std::num_put" = type { %"class.std::locale::facet.base", [4 x i8] }
%"class.std::num_get" = type { %"class.std::locale::facet.base", [4 x i8] }

@_ZStL8__ioinit = internal global %"class.std::ios_base::Init" zeroinitializer, align 1
@__dso_handle = external hidden global i8
@_ZSt3cin = external global %"class.std::basic_istream", align 8
@_ZSt4cout = external global %"class.std::basic_ostream", align 8
@.str = private unnamed_addr constant [3 x i8] c"no\00", align 1
@llvm.global_ctors = appending global [1 x { i32, void ()*, i8* }] [{ i32, void ()*, i8* } { i32 65535, void ()* @_GLOBAL__sub_I_703.cpp, i8* null }]

declare void @_ZNSt8ios_base4InitC1Ev(%"class.std::ios_base::Init"* nonnull align 1 dereferenceable(1)) unnamed_addr #0

; Function Attrs: nounwind
declare void @_ZNSt8ios_base4InitD1Ev(%"class.std::ios_base::Init"* nonnull align 1 dereferenceable(1)) unnamed_addr #1

; Function Attrs: nofree nounwind
declare i32 @__cxa_atexit(void (i8*)*, i8*, i8*) local_unnamed_addr #2

; Function Attrs: mustprogress norecurse sspstrong uwtable
define dso_local i32 @main() local_unnamed_addr #3 {
  %1 = alloca i8, align 1
  %2 = alloca [100000 x i8], align 16
  %3 = alloca i32, align 4
  %4 = alloca [26 x i32], align 16
  %5 = getelementptr inbounds [100000 x i8], [100000 x i8]* %2, i64 0, i64 0
  call void @llvm.lifetime.start.p0i8(i64 100000, i8* nonnull %5) #8
  %6 = bitcast i32* %3 to i8*
  call void @llvm.lifetime.start.p0i8(i64 4, i8* nonnull %6) #8
  %7 = call nonnull align 8 dereferenceable(16) %"class.std::basic_istream"* @_ZNSirsERi(%"class.std::basic_istream"* nonnull align 8 dereferenceable(16) @_ZSt3cin, i32* nonnull align 4 dereferenceable(4) %3)
  %8 = bitcast [26 x i32]* %4 to i8*
  %9 = load i32, i32* %3, align 4, !tbaa !5
  %10 = icmp sgt i32 %9, 0
  br i1 %10, label %11, label %105

11:                                               ; preds = %0, %99
  %12 = phi i32 [ %102, %99 ], [ 0, %0 ]
  call void @llvm.lifetime.start.p0i8(i64 104, i8* nonnull %8) #8
  call void @llvm.memset.p0i8.i64(i8* noundef nonnull align 16 dereferenceable(104) %8, i8 0, i64 104, i1 false)
  call void @_ZSt17__istream_extractRSiPcl(%"class.std::basic_istream"* nonnull align 8 dereferenceable(16) @_ZSt3cin, i8* nonnull %5, i64 100000)
  %13 = load i8, i8* %5, align 16, !tbaa !9
  %14 = icmp eq i8 %13, 0
  br i1 %14, label %71, label %16

15:                                               ; preds = %16
  br i1 %14, label %71, label %32

16:                                               ; preds = %11, %16
  %17 = phi i64 [ %24, %16 ], [ 0, %11 ]
  %18 = phi i8 [ %26, %16 ], [ %13, %11 ]
  %19 = sext i8 %18 to i64
  %20 = add nsw i64 %19, -97
  %21 = getelementptr inbounds [26 x i32], [26 x i32]* %4, i64 0, i64 %20
  %22 = load i32, i32* %21, align 4, !tbaa !5
  %23 = add nsw i32 %22, 1
  store i32 %23, i32* %21, align 4, !tbaa !5
  %24 = add nuw nsw i64 %17, 1
  %25 = getelementptr inbounds [100000 x i8], [100000 x i8]* %2, i64 0, i64 %24
  %26 = load i8, i8* %25, align 1, !tbaa !9
  %27 = icmp eq i8 %26, 0
  br i1 %27, label %15, label %16, !llvm.loop !10

28:                                               ; preds = %32
  %29 = getelementptr inbounds [100000 x i8], [100000 x i8]* %2, i64 0, i64 %40
  %30 = load i8, i8* %29, align 1, !tbaa !9
  %31 = icmp eq i8 %30, 0
  br i1 %31, label %71, label %32, !llvm.loop !12

32:                                               ; preds = %15, %28
  %33 = phi i64 [ %40, %28 ], [ 0, %15 ]
  %34 = phi i8 [ %30, %28 ], [ %13, %15 ]
  %35 = sext i8 %34 to i64
  %36 = add nsw i64 %35, -97
  %37 = getelementptr inbounds [26 x i32], [26 x i32]* %4, i64 0, i64 %36
  %38 = load i32, i32* %37, align 4, !tbaa !5
  %39 = icmp eq i32 %38, 1
  %40 = add nuw i64 %33, 1
  br i1 %39, label %41, label %28

41:                                               ; preds = %32
  call void @llvm.lifetime.start.p0i8(i64 1, i8* nonnull %1)
  store i8 %34, i8* %1, align 1, !tbaa !9
  %42 = call nonnull align 8 dereferenceable(8) %"class.std::basic_ostream"* @_ZSt16__ostream_insertIcSt11char_traitsIcEERSt13basic_ostreamIT_T0_ES6_PKS3_l(%"class.std::basic_ostream"* nonnull align 8 dereferenceable(8) @_ZSt4cout, i8* nonnull %1, i64 1)
  call void @llvm.lifetime.end.p0i8(i64 1, i8* nonnull %1)
  %43 = bitcast %"class.std::basic_ostream"* %42 to i8**
  %44 = load i8*, i8** %43, align 8, !tbaa !13
  %45 = getelementptr i8, i8* %44, i64 -24
  %46 = bitcast i8* %45 to i64*
  %47 = load i64, i64* %46, align 8
  %48 = bitcast %"class.std::basic_ostream"* %42 to i8*
  %49 = add nsw i64 %47, 240
  %50 = getelementptr inbounds i8, i8* %48, i64 %49
  %51 = bitcast i8* %50 to %"class.std::ctype"**
  %52 = load %"class.std::ctype"*, %"class.std::ctype"** %51, align 8, !tbaa !15
  %53 = icmp eq %"class.std::ctype"* %52, null
  br i1 %53, label %54, label %55

54:                                               ; preds = %41
  call void @_ZSt16__throw_bad_castv() #9
  unreachable

55:                                               ; preds = %41
  %56 = getelementptr inbounds %"class.std::ctype", %"class.std::ctype"* %52, i64 0, i32 8
  %57 = load i8, i8* %56, align 8, !tbaa !19
  %58 = icmp eq i8 %57, 0
  br i1 %58, label %62, label %59

59:                                               ; preds = %55
  %60 = getelementptr inbounds %"class.std::ctype", %"class.std::ctype"* %52, i64 0, i32 9, i64 10
  %61 = load i8, i8* %60, align 1, !tbaa !9
  br label %68

62:                                               ; preds = %55
  call void @_ZNKSt5ctypeIcE13_M_widen_initEv(%"class.std::ctype"* nonnull align 8 dereferenceable(570) %52)
  %63 = bitcast %"class.std::ctype"* %52 to i8 (%"class.std::ctype"*, i8)***
  %64 = load i8 (%"class.std::ctype"*, i8)**, i8 (%"class.std::ctype"*, i8)*** %63, align 8, !tbaa !13
  %65 = getelementptr inbounds i8 (%"class.std::ctype"*, i8)*, i8 (%"class.std::ctype"*, i8)** %64, i64 6
  %66 = load i8 (%"class.std::ctype"*, i8)*, i8 (%"class.std::ctype"*, i8)** %65, align 8
  %67 = call signext i8 %66(%"class.std::ctype"* nonnull align 8 dereferenceable(570) %52, i8 signext 10)
  br label %68

68:                                               ; preds = %59, %62
  %69 = phi i8 [ %61, %59 ], [ %67, %62 ]
  %70 = call nonnull align 8 dereferenceable(8) %"class.std::basic_ostream"* @_ZNSo3putEc(%"class.std::basic_ostream"* nonnull align 8 dereferenceable(8) %42, i8 signext %69)
  br label %99

71:                                               ; preds = %28, %11, %15
  %72 = call nonnull align 8 dereferenceable(8) %"class.std::basic_ostream"* @_ZSt16__ostream_insertIcSt11char_traitsIcEERSt13basic_ostreamIT_T0_ES6_PKS3_l(%"class.std::basic_ostream"* nonnull align 8 dereferenceable(8) @_ZSt4cout, i8* nonnull getelementptr inbounds ([3 x i8], [3 x i8]* @.str, i64 0, i64 0), i64 2)
  %73 = load i8*, i8** bitcast (%"class.std::basic_ostream"* @_ZSt4cout to i8**), align 8, !tbaa !13
  %74 = getelementptr i8, i8* %73, i64 -24
  %75 = bitcast i8* %74 to i64*
  %76 = load i64, i64* %75, align 8
  %77 = add nsw i64 %76, 240
  %78 = getelementptr inbounds i8, i8* bitcast (%"class.std::basic_ostream"* @_ZSt4cout to i8*), i64 %77
  %79 = bitcast i8* %78 to %"class.std::ctype"**
  %80 = load %"class.std::ctype"*, %"class.std::ctype"** %79, align 8, !tbaa !15
  %81 = icmp eq %"class.std::ctype"* %80, null
  br i1 %81, label %82, label %83

82:                                               ; preds = %71
  call void @_ZSt16__throw_bad_castv() #9
  unreachable

83:                                               ; preds = %71
  %84 = getelementptr inbounds %"class.std::ctype", %"class.std::ctype"* %80, i64 0, i32 8
  %85 = load i8, i8* %84, align 8, !tbaa !19
  %86 = icmp eq i8 %85, 0
  br i1 %86, label %90, label %87

87:                                               ; preds = %83
  %88 = getelementptr inbounds %"class.std::ctype", %"class.std::ctype"* %80, i64 0, i32 9, i64 10
  %89 = load i8, i8* %88, align 1, !tbaa !9
  br label %96

90:                                               ; preds = %83
  call void @_ZNKSt5ctypeIcE13_M_widen_initEv(%"class.std::ctype"* nonnull align 8 dereferenceable(570) %80)
  %91 = bitcast %"class.std::ctype"* %80 to i8 (%"class.std::ctype"*, i8)***
  %92 = load i8 (%"class.std::ctype"*, i8)**, i8 (%"class.std::ctype"*, i8)*** %91, align 8, !tbaa !13
  %93 = getelementptr inbounds i8 (%"class.std::ctype"*, i8)*, i8 (%"class.std::ctype"*, i8)** %92, i64 6
  %94 = load i8 (%"class.std::ctype"*, i8)*, i8 (%"class.std::ctype"*, i8)** %93, align 8
  %95 = call signext i8 %94(%"class.std::ctype"* nonnull align 8 dereferenceable(570) %80, i8 signext 10)
  br label %96

96:                                               ; preds = %87, %90
  %97 = phi i8 [ %89, %87 ], [ %95, %90 ]
  %98 = call nonnull align 8 dereferenceable(8) %"class.std::basic_ostream"* @_ZNSo3putEc(%"class.std::basic_ostream"* nonnull align 8 dereferenceable(8) @_ZSt4cout, i8 signext %97)
  br label %99

99:                                               ; preds = %68, %96
  %100 = phi %"class.std::basic_ostream"* [ %70, %68 ], [ %98, %96 ]
  %101 = call nonnull align 8 dereferenceable(8) %"class.std::basic_ostream"* @_ZNSo5flushEv(%"class.std::basic_ostream"* nonnull align 8 dereferenceable(8) %100)
  call void @llvm.lifetime.end.p0i8(i64 104, i8* nonnull %8) #8
  %102 = add nuw nsw i32 %12, 1
  %103 = load i32, i32* %3, align 4, !tbaa !5
  %104 = icmp slt i32 %102, %103
  br i1 %104, label %11, label %105, !llvm.loop !21

105:                                              ; preds = %99, %0
  call void @llvm.lifetime.end.p0i8(i64 4, i8* nonnull %6) #8
  call void @llvm.lifetime.end.p0i8(i64 100000, i8* nonnull %5) #8
  ret i32 0
}

; Function Attrs: argmemonly mustprogress nofree nosync nounwind willreturn
declare void @llvm.lifetime.start.p0i8(i64 immarg, i8* nocapture) #4

declare nonnull align 8 dereferenceable(16) %"class.std::basic_istream"* @_ZNSirsERi(%"class.std::basic_istream"* nonnull align 8 dereferenceable(16), i32* nonnull align 4 dereferenceable(4)) local_unnamed_addr #0

; Function Attrs: argmemonly mustprogress nofree nounwind willreturn writeonly
declare void @llvm.memset.p0i8.i64(i8* nocapture writeonly, i8, i64, i1 immarg) #5

; Function Attrs: argmemonly mustprogress nofree nosync nounwind willreturn
declare void @llvm.lifetime.end.p0i8(i64 immarg, i8* nocapture) #4

declare void @_ZSt17__istream_extractRSiPcl(%"class.std::basic_istream"* nonnull align 8 dereferenceable(16), i8*, i64) local_unnamed_addr #0

declare nonnull align 8 dereferenceable(8) %"class.std::basic_ostream"* @_ZSt16__ostream_insertIcSt11char_traitsIcEERSt13basic_ostreamIT_T0_ES6_PKS3_l(%"class.std::basic_ostream"* nonnull align 8 dereferenceable(8), i8*, i64) local_unnamed_addr #0

declare nonnull align 8 dereferenceable(8) %"class.std::basic_ostream"* @_ZNSo3putEc(%"class.std::basic_ostream"* nonnull align 8 dereferenceable(8), i8 signext) local_unnamed_addr #0

declare nonnull align 8 dereferenceable(8) %"class.std::basic_ostream"* @_ZNSo5flushEv(%"class.std::basic_ostream"* nonnull align 8 dereferenceable(8)) local_unnamed_addr #0

; Function Attrs: noreturn
declare void @_ZSt16__throw_bad_castv() local_unnamed_addr #6

declare void @_ZNKSt5ctypeIcE13_M_widen_initEv(%"class.std::ctype"* nonnull align 8 dereferenceable(570)) local_unnamed_addr #0

; Function Attrs: sspstrong uwtable
define internal void @_GLOBAL__sub_I_703.cpp() #7 section ".text.startup" {
  tail call void @_ZNSt8ios_base4InitC1Ev(%"class.std::ios_base::Init"* nonnull align 1 dereferenceable(1) @_ZStL8__ioinit)
  %1 = tail call i32 @__cxa_atexit(void (i8*)* bitcast (void (%"class.std::ios_base::Init"*)* @_ZNSt8ios_base4InitD1Ev to void (i8*)*), i8* getelementptr inbounds (%"class.std::ios_base::Init", %"class.std::ios_base::Init"* @_ZStL8__ioinit, i64 0, i32 0), i8* nonnull @__dso_handle) #8
  ret void
}


!llvm.module.flags = !{!0, !1, !2, !3}
!llvm.ident = !{!4}

!0 = !{i32 1, !"wchar_size", i32 4}
!1 = !{i32 7, !"PIC Level", i32 2}
!2 = !{i32 7, !"PIE Level", i32 2}
!3 = !{i32 7, !"uwtable", i32 1}
!4 = !{!"clang version 13.0.0"}
!5 = !{!6, !6, i64 0}
!6 = !{!"int", !7, i64 0}
!7 = !{!"omnipotent char", !8, i64 0}
!8 = !{!"Simple C++ TBAA"}
!9 = !{!7, !7, i64 0}
!10 = distinct !{!10, !11}
!11 = !{!"llvm.loop.mustprogress"}
!12 = distinct !{!12, !11}
!13 = !{!14, !14, i64 0}
!14 = !{!"vtable pointer", !8, i64 0}
!15 = !{!16, !17, i64 240}
!16 = !{!"_ZTSSt9basic_iosIcSt11char_traitsIcEE", !17, i64 216, !7, i64 224, !18, i64 225, !17, i64 232, !17, i64 240, !17, i64 248, !17, i64 256}
!17 = !{!"any pointer", !7, i64 0}
!18 = !{!"bool", !7, i64 0}
!19 = !{!20, !7, i64 56}
!20 = !{!"_ZTSSt5ctypeIcE", !17, i64 16, !18, i64 24, !17, i64 32, !17, i64 40, !17, i64 48, !7, i64 56, !7, i64 57, !7, i64 313, !7, i64 569}
!21 = distinct !{!21, !11}
